target datalayout = "e-m:e-p270:32:32-p271:32:32-p272:64:64-i64:64-i128:128-f80:128-n8:16:32:64-S128"
target triple = "x86_64-pc-linux-gnu"

%struct.SpecialFlag = type <{ ptr, %class.JDK_Version, %class.JDK_Version, %class.JDK_Version, [4 x i8] }>
%class.JDK_Version = type { i32, i32, i32, i32, i32 }

@_ZL17special_jvm_flags = internal global [21 x %struct.SpecialFlag] zeroinitializer, align 16
@.str.59 = private unnamed_addr constant [73 x i8] c"Temporarily processing option %s; support is scheduled for removal in %s\00", align 1
@_ZN11JDK_Version8_currentE = external global %class.JDK_Version, align 4

; Function Attrs: mustprogress nounwind uwtable
define linkonce_odr hidden noundef ptr @_ZN7JVMFlag18find_declared_flagEPKcm(ptr noundef %0, i64 noundef %1) #1 comdat align 2 {
  %3 = alloca ptr, align 8
  %4 = alloca i64, align 8
  store ptr %0, ptr %3, align 8
  store i64 %1, ptr %4, align 8
  %5 = load ptr, ptr %3, align 8
  %6 = load i64, ptr %4, align 8
  %7 = call noundef ptr @_ZN7JVMFlag9find_flagEPKcmbb(ptr noundef %5, i64 noundef %6, i1 noundef zeroext true, i1 noundef zeroext true)
  ret ptr %7
}

; Function Attrs: mustprogress nounwind uwtable
define linkonce_odr hidden void @_ZN11JDK_VersionC2Ev(ptr noundef nonnull align 4 dereferenceable(20) %0) unnamed_addr #1 comdat align 2 {
  %2 = alloca ptr, align 8
  store ptr %0, ptr %2, align 8
  %3 = load ptr, ptr %2, align 8
  %4 = getelementptr inbounds %class.JDK_Version, ptr %3, i32 0, i32 0
  store i32 0, ptr %4, align 4
  %5 = getelementptr inbounds %class.JDK_Version, ptr %3, i32 0, i32 1
  store i32 0, ptr %5, align 4
  %6 = getelementptr inbounds %class.JDK_Version, ptr %3, i32 0, i32 2
  store i32 0, ptr %6, align 4
  %7 = getelementptr inbounds %class.JDK_Version, ptr %3, i32 0, i32 3
  store i32 0, ptr %7, align 4
  %8 = getelementptr inbounds %class.JDK_Version, ptr %3, i32 0, i32 4
  store i32 0, ptr %8, align 4
  ret void
}

; Function Attrs: mustprogress nounwind uwtable
define linkonce_odr hidden noundef ptr @_ZN7JVMFlag18find_declared_flagEPKc(ptr noundef %0) #1 comdat align 2 {
  %2 = alloca ptr, align 8
  store ptr %0, ptr %2, align 8
  %3 = load ptr, ptr %2, align 8
  %4 = load ptr, ptr %2, align 8
  %5 = call i64 @strlen(ptr noundef %4) #12
  %6 = call noundef ptr @_ZN7JVMFlag18find_declared_flagEPKcm(ptr noundef %3, i64 noundef %5)
  ret ptr %6
}

; Function Attrs: mustprogress nounwind uwtable
define internal noundef zeroext i1 @_ZL17version_less_than11JDK_VersionS_(ptr noundef byval(%class.JDK_Version) align 8 %0, ptr noundef byval(%class.JDK_Version) align 8 %1) #1 {
  %3 = alloca i1, align 1
  %4 = call noundef zeroext i1 @_ZNK11JDK_Version12is_undefinedEv(ptr noundef nonnull align 4 dereferenceable(20) %1)
  br i1 %4, label %9, label %5

5:                                                ; preds = %2
  %6 = call noundef i32 @_ZNK11JDK_Version7compareERKS_(ptr noundef nonnull align 4 dereferenceable(20) %0, ptr noundef nonnull align 4 dereferenceable(20) %1)
  %7 = icmp sge i32 %6, 0
  br i1 %7, label %8, label %9

8:                                                ; preds = %5
  store i1 false, ptr %3, align 1
  br label %10

9:                                                ; preds = %5, %2
  store i1 true, ptr %3, align 1
  br label %10

10:                                               ; preds = %9, %8
  %11 = load i1, ptr %3, align 1
  ret i1 %11
}

; Function Attrs: mustprogress nounwind uwtable
define linkonce_odr hidden void @_ZN11JDK_Version7currentEv(ptr dead_on_unwind noalias writable sret(%class.JDK_Version) align 4 %0) #1 comdat align 2 {
  call void @llvm.memcpy.p0.p0.i64(ptr align 4 %0, ptr align 4 @_ZN11JDK_Version8_currentE, i64 20, i1 false)
  ret void
}

; Function Attrs: mustprogress nounwind uwtable
define linkonce_odr hidden noundef zeroext i1 @_ZNK11JDK_Version12is_undefinedEv(ptr noundef nonnull align 4 dereferenceable(20) %0) #1 comdat align 2 {
  %2 = alloca ptr, align 8
  store ptr %0, ptr %2, align 8
  %3 = load ptr, ptr %2, align 8
  %4 = getelementptr inbounds %class.JDK_Version, ptr %3, i32 0, i32 0
  %5 = load i32, ptr %4, align 4
  %6 = icmp eq i32 %5, 0
  ret i1 %6
}

; Function Attrs: mustprogress nounwind uwtable
define internal noundef zeroext i1 @_ZL19lookup_special_flagPKcR11SpecialFlag(ptr noundef %0, ptr noundef nonnull align 8 dereferenceable(68) %1) #1 {
  %3 = alloca i1, align 1
  %4 = alloca ptr, align 8
  %5 = alloca ptr, align 8
  %6 = alloca i64, align 8
  store ptr %0, ptr %4, align 8
  store ptr %1, ptr %5, align 8
  store i64 0, ptr %6, align 8
  br label %7

7:                                                ; preds = %26, %2
  %8 = load i64, ptr %6, align 8
  %9 = getelementptr inbounds [21 x %struct.SpecialFlag], ptr @_ZL17special_jvm_flags, i64 0, i64 %8
  %10 = getelementptr inbounds %struct.SpecialFlag, ptr %9, i32 0, i32 0
  %11 = load ptr, ptr %10, align 8
  %12 = icmp ne ptr %11, null
  br i1 %12, label %13, label %29

13:                                               ; preds = %7
  %14 = load i64, ptr %6, align 8
  %15 = getelementptr inbounds [21 x %struct.SpecialFlag], ptr @_ZL17special_jvm_flags, i64 0, i64 %14
  %16 = getelementptr inbounds %struct.SpecialFlag, ptr %15, i32 0, i32 0
  %17 = load ptr, ptr %16, align 8
  %18 = load ptr, ptr %4, align 8
  %19 = call i32 @strcmp(ptr noundef %17, ptr noundef %18) #12
  %20 = icmp eq i32 %19, 0
  br i1 %20, label %21, label %25

21:                                               ; preds = %13
  %22 = load i64, ptr %6, align 8
  %23 = getelementptr inbounds [21 x %struct.SpecialFlag], ptr @_ZL17special_jvm_flags, i64 0, i64 %22
  %24 = load ptr, ptr %5, align 8
  call void @llvm.memcpy.p0.p0.i64(ptr align 8 %24, ptr align 8 %23, i64 68, i1 false)
  store i1 true, ptr %3, align 1
  br label %30

25:                                               ; preds = %13
  br label %26

26:                                               ; preds = %25
  %27 = load i64, ptr %6, align 8
  %28 = add i64 %27, 1
  store i64 %28, ptr %6, align 8
  br label %7, !llvm.loop !9

29:                                               ; preds = %7
  store i1 false, ptr %3, align 1
  br label %30

30:                                               ; preds = %29, %21
  %31 = load i1, ptr %3, align 1
  ret i1 %31
}

; Function Attrs: mustprogress nounwind uwtable
define linkonce_odr hidden void @_ZN11SpecialFlagC2Ev(ptr noundef nonnull align 8 dereferenceable(68) %0) unnamed_addr #1 comdat align 2 {
  %2 = alloca ptr, align 8
  store ptr %0, ptr %2, align 8
  %3 = load ptr, ptr %2, align 8
  %4 = getelementptr inbounds %struct.SpecialFlag, ptr %3, i32 0, i32 1
  call void @_ZN11JDK_VersionC2Ev(ptr noundef nonnull align 4 dereferenceable(20) %4)
  %5 = getelementptr inbounds %struct.SpecialFlag, ptr %3, i32 0, i32 2
  call void @_ZN11JDK_VersionC2Ev(ptr noundef nonnull align 4 dereferenceable(20) %5)
  %6 = getelementptr inbounds %struct.SpecialFlag, ptr %3, i32 0, i32 3
  call void @_ZN11JDK_VersionC2Ev(ptr noundef nonnull align 4 dereferenceable(20) %6)
  ret void
}

; Function Attrs: mustprogress nounwind uwtable
define hidden noundef zeroext i1 @_ZN9Arguments16is_obsolete_flagEPKcP11JDK_Version(ptr noundef %0, ptr noundef %1) #1 align 2 {
  %3 = alloca i1, align 1
  %4 = alloca ptr, align 8
  %5 = alloca ptr, align 8
  %6 = alloca %struct.SpecialFlag, align 8
  %7 = alloca %class.JDK_Version, align 8
  %8 = alloca %class.JDK_Version, align 8
  %9 = alloca ptr, align 8
  %10 = alloca [256 x i8], align 16
  store ptr %0, ptr %4, align 8
  store ptr %1, ptr %5, align 8
  call void @_ZN11SpecialFlagC2Ev(ptr noundef nonnull align 8 dereferenceable(68) %6)
  %11 = load ptr, ptr %4, align 8
  %12 = call noundef zeroext i1 @_ZL19lookup_special_flagPKcR11SpecialFlag(ptr noundef %11, ptr noundef nonnull align 8 dereferenceable(68) %6)
  br i1 %12, label %13, label %35

13:                                               ; preds = %2
  %14 = getelementptr inbounds %struct.SpecialFlag, ptr %6, i32 0, i32 2
  %15 = call noundef zeroext i1 @_ZNK11JDK_Version12is_undefinedEv(ptr noundef nonnull align 4 dereferenceable(20) %14)
  br i1 %15, label %34, label %16

16:                                               ; preds = %13
  call void @_ZN11JDK_Version7currentEv(ptr dead_on_unwind writable sret(%class.JDK_Version) align 4 %7)
  %17 = getelementptr inbounds %struct.SpecialFlag, ptr %6, i32 0, i32 2
  call void @llvm.memcpy.p0.p0.i64(ptr align 4 %8, ptr align 4 %17, i64 20, i1 false)
  %18 = call noundef zeroext i1 @_ZL17version_less_than11JDK_VersionS_(ptr noundef byval(%class.JDK_Version) align 8 %7, ptr noundef byval(%class.JDK_Version) align 8 %8)
  %19 = xor i1 %18, true
  br i1 %19, label %20, label %33

20:                                               ; preds = %16
  %21 = getelementptr inbounds %struct.SpecialFlag, ptr %6, i32 0, i32 2
  %22 = load ptr, ptr %5, align 8
  call void @llvm.memcpy.p0.p0.i64(ptr align 4 %22, ptr align 4 %21, i64 20, i1 false)
  %23 = load ptr, ptr %4, align 8
  %24 = call noundef ptr @_ZN7JVMFlag18find_declared_flagEPKc(ptr noundef %23)
  store ptr %24, ptr %9, align 8
  %25 = load ptr, ptr %9, align 8
  %26 = icmp ne ptr %25, null
  br i1 %26, label %27, label %32

27:                                               ; preds = %20
  %28 = load ptr, ptr %5, align 8
  %29 = getelementptr inbounds [256 x i8], ptr %10, i64 0, i64 0
  call void @_ZNK11JDK_Version9to_stringEPcm(ptr noundef nonnull align 4 dereferenceable(20) %28, ptr noundef %29, i64 noundef 256)
  %30 = load ptr, ptr %4, align 8
  %31 = getelementptr inbounds [256 x i8], ptr %10, i64 0, i64 0
  call void (ptr, ...) @_Z7warningPKcz(ptr noundef @.str.59, ptr noundef %30, ptr noundef %31)
  store i1 false, ptr %3, align 1
  br label %36

32:                                               ; preds = %20
  store i1 true, ptr %3, align 1
  br label %36

33:                                               ; preds = %16
  br label %34

34:                                               ; preds = %33, %13
  br label %35

35:                                               ; preds = %34, %2
  store i1 false, ptr %3, align 1
  br label %36

36:                                               ; preds = %35, %32, %27
  %37 = load i1, ptr %3, align 1
  ret i1 %37
}