; Function Attrs: mustprogress nounwind uwtable
define hidden noundef zeroext i1 @_ZN9Arguments16is_obsolete_flagEPKcP11JDK_Version(ptr noundef %0, ptr noundef %1) local_unnamed_addr #0 align 2 {
  %3 = alloca %class.JDK_Version, align 8
  %4 = alloca %class.JDK_Version, align 8
  %.sroa.5 = alloca [36 x i8], align 8
  %5 = alloca [256 x i8], align 16
  %6 = load ptr, ptr @_ZL17special_jvm_flags, align 16
  %.not11.not.i = icmp eq ptr %6, null
  br i1 %.not11.not.i, label %_ZL19lookup_special_flagPKcR11SpecialFlag.exit.thread, label %.lr.ph.i.preheader

.lr.ph.i.preheader:                               ; preds = %2
  %7 = tail call i32 @strcmp(ptr noundef nonnull dereferenceable(1) %6, ptr noundef nonnull readonly dereferenceable(1) %0) #30
  %8 = icmp eq i32 %7, 0
  br i1 %8, label %.lr.ph.i._crit_edge, label %.lr.ph

.lr.ph:                                           ; preds = %.lr.ph.i.preheader, %.lr.ph.i
  %.012.i18 = phi i64 [ %9, %.lr.ph.i ], [ 0, %.lr.ph.i.preheader ]
  %9 = add i64 %.012.i18, 1
  %10 = getelementptr inbounds [21 x %struct.SpecialFlag], ptr @_ZL17special_jvm_flags, i64 0, i64 %9
  %11 = load ptr, ptr %10, align 8
  %.not.not.i = icmp eq ptr %11, null
  br i1 %.not.not.i, label %_ZL19lookup_special_flagPKcR11SpecialFlag.exit.thread, label %.lr.ph.i, !llvm.loop !9

.lr.ph.i:                                         ; preds = %.lr.ph
  %12 = tail call i32 @strcmp(ptr noundef nonnull dereferenceable(1) %11, ptr noundef nonnull readonly dereferenceable(1) %0) #30
  %13 = icmp eq i32 %12, 0
  br i1 %13, label %.lr.ph.i._crit_edge, label %.lr.ph, !llvm.loop !9

.lr.ph.i._crit_edge:                              ; preds = %.lr.ph.i, %.lr.ph.i.preheader
  %.lcssa = phi ptr [ @_ZL17special_jvm_flags, %.lr.ph.i.preheader ], [ %10, %.lr.ph.i ]
  %.sroa.2.0..sroa_idx = getelementptr inbounds i8, ptr %.lcssa, i64 28
  %.sroa.2.0.copyload = load i32, ptr %.sroa.2.0..sroa_idx, align 4
  %.sroa.5.0..sroa_idx = getelementptr inbounds i8, ptr %.lcssa, i64 32
  call void @llvm.memcpy.p0.p0.i64(ptr noundef nonnull align 8 dereferenceable(36) %.sroa.5, ptr noundef nonnull align 8 dereferenceable(36) %.sroa.5.0..sroa_idx, i64 36, i1 false)
  %14 = icmp eq i32 %.sroa.2.0.copyload, 0
  br i1 %14, label %_ZL19lookup_special_flagPKcR11SpecialFlag.exit.thread, label %15

15:                                               ; preds = %.lr.ph.i._crit_edge
  call void @llvm.lifetime.start.p0(i64 20, ptr nonnull %4)
  call void @llvm.memcpy.p0.p0.i64(ptr noundef nonnull align 8 dereferenceable(20) %4, ptr noundef nonnull align 4 dereferenceable(20) @_ZN11JDK_Version8_currentE, i64 20, i1 false)
  call void @llvm.lifetime.start.p0(i64 20, ptr nonnull %3)
  store i32 %.sroa.2.0.copyload, ptr %3, align 8
  %.sroa.212.0..sroa_idx = getelementptr inbounds i8, ptr %3, i64 4
  call void @llvm.memcpy.p0.p0.i64(ptr noundef nonnull align 4 dereferenceable(16) %.sroa.212.0..sroa_idx, ptr noundef nonnull align 8 dereferenceable(16) %.sroa.5.0..sroa_idx, i64 16, i1 false)
  %16 = call noundef i32 @_ZNK11JDK_Version7compareERKS_(ptr noundef nonnull align 4 dereferenceable(20) %4, ptr noundef nonnull align 4 dereferenceable(20) %3) #31
  %17 = icmp sgt i32 %16, -1
  call void @llvm.lifetime.end.p0(i64 20, ptr nonnull %4)
  call void @llvm.lifetime.end.p0(i64 20, ptr nonnull %3)
  br i1 %17, label %18, label %_ZL19lookup_special_flagPKcR11SpecialFlag.exit.thread

18:                                               ; preds = %15
  store i32 %.sroa.2.0.copyload, ptr %1, align 4
  %.sroa.5.28..sroa_idx = getelementptr inbounds i8, ptr %1, i64 4
  call void @llvm.memcpy.p0.p0.i64(ptr noundef nonnull align 4 dereferenceable(16) %.sroa.5.28..sroa_idx, ptr noundef nonnull align 8 dereferenceable(16) %.sroa.5, i64 16, i1 false)
  %19 = call i64 @strlen(ptr noundef nonnull dereferenceable(1) %0) #30
  %20 = call noundef ptr @_ZN7JVMFlag9find_flagEPKcmbb(ptr noundef %0, i64 noundef %19, i1 noundef zeroext true, i1 noundef zeroext true) #31
  %.not = icmp eq ptr %20, null
  br i1 %.not, label %_ZL19lookup_special_flagPKcR11SpecialFlag.exit.thread, label %21

21:                                               ; preds = %18
  call void @_ZNK11JDK_Version9to_stringEPcm(ptr noundef nonnull align 4 dereferenceable(20) %1, ptr noundef nonnull %5, i64 noundef 256) #31
  call void (ptr, ...) @_Z7warningPKcz(ptr noundef nonnull @.str.59, ptr noundef %0, ptr noundef nonnull %5) #31
  br label %_ZL19lookup_special_flagPKcR11SpecialFlag.exit.thread

_ZL19lookup_special_flagPKcR11SpecialFlag.exit.thread: ; preds = %.lr.ph, %15, %2, %.lr.ph.i._crit_edge, %18, %21
  %.0 = phi i1 [ false, %21 ], [ true, %18 ], [ false, %.lr.ph.i._crit_edge ], [ false, %2 ], [ false, %15 ], [ false, %.lr.ph ]
  ret i1 %.0
}